; ModuleID = '40/3083.c'
source_filename = "40/3083.c"
target datalayout = "e-m:e-p270:32:32-p271:32:32-p272:64:64-i64:64-f80:128-n8:16:32:64-S128"
target triple = "x86_64-pc-linux-gnu"

@.str = private unnamed_addr constant [16 x i8] c"%lf%lf%lf%lf%lf\00", align 1
@.str.1 = private unnamed_addr constant [6 x i8] c"%.4lf\00", align 1
@.str.2 = private unnamed_addr constant [14 x i8] c"Invalid input\00", align 1

; Function Attrs: noinline nounwind uwtable
define dso_local i32 @main(i32 %0, i8** %1) #0 {
  %3 = alloca i32, align 4
  %4 = alloca i32, align 4
  %5 = alloca i8**, align 8
  %6 = alloca double, align 8
  %7 = alloca double, align 8
  %8 = alloca double, align 8
  %9 = alloca double, align 8
  %10 = alloca double, align 8
  %11 = alloca double, align 8
  %12 = alloca double, align 8
  store i32 0, i32* %3, align 4
  store i32 %0, i32* %4, align 4
  store i8** %1, i8*** %5, align 8
  %13 = call i32 (i8*, ...) @__isoc99_scanf(i8* getelementptr inbounds ([16 x i8], [16 x i8]* @.str, i64 0, i64 0), double* %6, double* %7, double* %8, double* %9, double* %10)
  %14 = load double, double* %6, align 8
  %15 = load double, double* %7, align 8
  %16 = fadd double %14, %15
  %17 = load double, double* %8, align 8
  %18 = fadd double %16, %17
  %19 = load double, double* %9, align 8
  %20 = fadd double %18, %19
  %21 = fdiv double %20, 2.000000e+00
  store double %21, double* %12, align 8
  %22 = load double, double* %12, align 8
  %23 = load double, double* %6, align 8
  %24 = fsub double %22, %23
  %25 = load double, double* %12, align 8
  %26 = load double, double* %7, align 8
  %27 = fsub double %25, %26
  %28 = fmul double %24, %27
  %29 = load double, double* %12, align 8
  %30 = load double, double* %8, align 8
  %31 = fsub double %29, %30
  %32 = fmul double %28, %31
  %33 = load double, double* %12, align 8
  %34 = load double, double* %9, align 8
  %35 = fsub double %33, %34
  %36 = fmul double %32, %35
  %37 = load double, double* %6, align 8
  %38 = load double, double* %7, align 8
  %39 = fmul double %37, %38
  %40 = load double, double* %8, align 8
  %41 = fmul double %39, %40
  %42 = load double, double* %9, align 8
  %43 = fmul double %41, %42
  %44 = load double, double* %10, align 8
  %45 = fdiv double %44, 2.000000e+00
  %46 = call double @cos(double %45) #3
  %47 = fmul double %43, %46
  %48 = load double, double* %10, align 8
  %49 = fdiv double %48, 2.000000e+00
  %50 = call double @cos(double %49) #3
  %51 = fmul double %47, %50
  %52 = fsub double %36, %51
  %53 = fcmp ogt double %52, 0.000000e+00
  br i1 %53, label %54, label %91

54:                                               ; preds = %2
  %55 = load double, double* %12, align 8
  %56 = load double, double* %6, align 8
  %57 = fsub double %55, %56
  %58 = load double, double* %12, align 8
  %59 = load double, double* %7, align 8
  %60 = fsub double %58, %59
  %61 = fmul double %57, %60
  %62 = load double, double* %12, align 8
  %63 = load double, double* %8, align 8
  %64 = fsub double %62, %63
  %65 = fmul double %61, %64
  %66 = load double, double* %12, align 8
  %67 = load double, double* %9, align 8
  %68 = fsub double %66, %67
  %69 = fmul double %65, %68
  %70 = load double, double* %6, align 8
  %71 = load double, double* %7, align 8
  %72 = fmul double %70, %71
  %73 = load double, double* %8, align 8
  %74 = fmul double %72, %73
  %75 = load double, double* %9, align 8
  %76 = fmul double %74, %75
  %77 = load double, double* %10, align 8
  %78 = fdiv double %77, 3.600000e+02
  %79 = fmul double %78, 3.140000e+00
  %80 = call double @cos(double %79) #3
  %81 = fmul double %76, %80
  %82 = load double, double* %10, align 8
  %83 = fdiv double %82, 3.600000e+02
  %84 = fmul double %83, 3.140000e+00
  %85 = call double @cos(double %84) #3
  %86 = fmul double %81, %85
  %87 = fsub double %69, %86
  %88 = call double @sqrt(double %87) #3
  store double %88, double* %11, align 8
  %89 = load double, double* %11, align 8
  %90 = call i32 (i8*, ...) @printf(i8* getelementptr inbounds ([6 x i8], [6 x i8]* @.str.1, i64 0, i64 0), double %89)
  br label %93

91:                                               ; preds = %2
  %92 = call i32 (i8*, ...) @printf(i8* getelementptr inbounds ([14 x i8], [14 x i8]* @.str.2, i64 0, i64 0))
  br label %93

93:                                               ; preds = %91, %54
  ret i32 0
}

declare dso_local i32 @__isoc99_scanf(i8*, ...) #1

; Function Attrs: nounwind
declare dso_local double @cos(double) #2

; Function Attrs: nounwind
declare dso_local double @sqrt(double) #2

declare dso_local i32 @printf(i8*, ...) #1


!llvm.module.flags = !{!0}
!llvm.ident = !{!1}

!0 = !{i32 1, !"wchar_size", i32 4}
!1 = !{!"clang version 10.0.0-4ubuntu1 "}
